; Function Attrs: nounwind sspstrong uwtable
define internal noundef i64 @enumerator_feed(i64 noundef %0, i64 noundef %1) #0 {
  %3 = tail call ptr @rb_check_typeddata(i64 noundef %0, ptr noundef nonnull @enumerator_data_type) #18
  %.not.i = icmp eq ptr %3, null
  br i1 %.not.i, label %7, label %4

4:                                                ; preds = %2
  %5 = load i64, ptr %3, align 8, !tbaa !17
  %6 = icmp eq i64 %5, 36
  br i1 %6, label %7, label %enumerator_ptr.exit

7:                                                ; preds = %4, %2
  %8 = load i64, ptr @rb_eArgError, align 8, !tbaa !7
  tail call void (i64, ptr, ...) @rb_raise(i64 noundef %8, ptr noundef nonnull @.str.103) #19
  unreachable

enumerator_ptr.exit:                              ; preds = %4
  %9 = icmp eq i64 %0, 0
  %10 = and i64 %0, 7
  %11 = icmp ne i64 %10, 0
  %12 = or i1 %9, %11
  br i1 %12, label %RB_OBJ_FROZEN.exit.thread.i, label %RB_FL_ABLE.exit.i.i, !prof !20

RB_FL_ABLE.exit.i.i:                              ; preds = %enumerator_ptr.exit
  %13 = inttoptr i64 %0 to ptr
  %14 = load i64, ptr %13, align 8, !tbaa !21
  %15 = and i64 %14, 31
  %.not.i.i = icmp eq i64 %15, 27
  %16 = and i64 %14, 2048
  %17 = icmp ne i64 %16, 0
  %or.cond.i = or i1 %.not.i.i, %17
  br i1 %or.cond.i, label %RB_OBJ_FROZEN.exit.thread.i, label %rbimpl_RB_TYPE_P_fastpath.exit.i, !prof !22

RB_OBJ_FROZEN.exit.thread.i:                      ; preds = %RB_FL_ABLE.exit.i.i, %enumerator_ptr.exit
  tail call void @rb_error_frozen_object(i64 noundef %0) #19
  unreachable

rbimpl_RB_TYPE_P_fastpath.exit.i:                 ; preds = %RB_FL_ABLE.exit.i.i
  %18 = icmp ne i64 %15, 5
  %19 = and i64 %14, 49152
  %.not.i5 = icmp eq i64 %19, 0
  %or.cond8.i = or i1 %18, %.not.i5
  br i1 %or.cond8.i, label %rb_check_frozen_inline.exit, label %20, !prof !23

20:                                               ; preds = %rbimpl_RB_TYPE_P_fastpath.exit.i
  tail call void @rb_str_modify(i64 noundef %0) #18
  br label %rb_check_frozen_inline.exit

rb_check_frozen_inline.exit:                      ; preds = %rbimpl_RB_TYPE_P_fastpath.exit.i, %20
  %21 = getelementptr inbounds nuw i8, ptr %3, i64 48
  %22 = load i64, ptr %21, align 8, !tbaa !28
  %23 = icmp eq i64 %22, 36
  br i1 %23, label %26, label %24

24:                                               ; preds = %rb_check_frozen_inline.exit
  %25 = load i64, ptr @rb_eTypeError, align 8, !tbaa !7
  tail call void (i64, ptr, ...) @rb_raise(i64 noundef %25, ptr noundef nonnull @.str.110) #19
  unreachable

26:                                               ; preds = %rb_check_frozen_inline.exit
  store i64 %1, ptr %21, align 8, !tbaa !7
  %27 = icmp eq i64 %1, 0
  %28 = and i64 %1, 7
  %29 = icmp ne i64 %28, 0
  %30 = or i1 %27, %29
  br i1 %30, label %rb_obj_write.exit, label %31

31:                                               ; preds = %26
  tail call void @rb_gc_writebarrier(i64 noundef %0, i64 noundef %1) #18
  br label %rb_obj_write.exit

rb_obj_write.exit:                                ; preds = %26, %31
  ret i64 4
}